target datalayout = "e-m:e-p270:32:32-p271:32:32-p272:64:64-i64:64-i128:128-f80:128-n8:16:32:64-S128"
target triple = "x86_64-pc-linux-gnu"

%struct.field_info = type { ptr, i32, i32, i32, i32, i32, i32, ptr, ptr, ptr, i32, i32 }
%struct.write_json_data = type { ptr, ptr, i8, i8, ptr, ptr }
%struct._GSList = type { ptr, ptr }

@.str.60 = private unnamed_addr constant [1 x i8] zeroinitializer, align 1
@.str.82 = private unnamed_addr constant [22 x i8] c"field length invalid!\00", align 1
@json_write_field_hex_value.hex = internal constant [17 x i8] c"0123456789abcdef\00", align 16

; Function Attrs: null_pointer_is_valid sspstrong uwtable
define internal ptr @get_field_data(ptr noundef %0, ptr noundef %1) #0 {
  %3 = alloca ptr, align 8
  %4 = alloca ptr, align 8
  %5 = alloca ptr, align 8
  %6 = alloca ptr, align 8
  %7 = alloca ptr, align 8
  %8 = alloca i32, align 4
  %9 = alloca i32, align 4
  %10 = alloca ptr, align 8
  %11 = alloca i32, align 4
  store ptr %0, ptr %4, align 8
  store ptr %1, ptr %5, align 8
  call void @llvm.lifetime.start.p0(i64 8, ptr %6) #15
  call void @llvm.lifetime.start.p0(i64 8, ptr %7) #15
  call void @llvm.lifetime.start.p0(i64 4, ptr %8) #15
  call void @llvm.lifetime.start.p0(i64 4, ptr %9) #15
  call void @llvm.lifetime.start.p0(i64 8, ptr %10) #15
  %12 = load ptr, ptr %4, align 8
  store ptr %12, ptr %6, align 8
  br label %13

13:                                               ; preds = %53, %2
  %14 = load ptr, ptr %6, align 8
  %15 = icmp ne ptr %14, null
  br i1 %15, label %16, label %57

16:                                               ; preds = %13
  %17 = load ptr, ptr %6, align 8
  %18 = getelementptr inbounds nuw %struct._GSList, ptr %17, i32 0, i32 0
  %19 = load ptr, ptr %18, align 8
  store ptr %19, ptr %10, align 8
  %20 = load ptr, ptr %10, align 8
  %21 = call ptr @get_data_source_tvb(ptr noundef %20)
  store ptr %21, ptr %7, align 8
  %22 = load ptr, ptr %5, align 8
  %23 = getelementptr inbounds nuw %struct.field_info, ptr %22, i32 0, i32 8
  %24 = load ptr, ptr %23, align 8
  %25 = load ptr, ptr %7, align 8
  %26 = icmp eq ptr %24, %25
  br i1 %26, label %27, label %52

27:                                               ; preds = %16
  %28 = load ptr, ptr %7, align 8
  %29 = load ptr, ptr %5, align 8
  %30 = getelementptr inbounds nuw %struct.field_info, ptr %29, i32 0, i32 1
  %31 = load i32, ptr %30, align 8
  %32 = call i32 @tvb_captured_length_remaining(ptr noundef %28, i32 noundef %31)
  store i32 %32, ptr %9, align 4
  %33 = load i32, ptr %9, align 4
  %34 = icmp slt i32 %33, 0
  br i1 %34, label %35, label %36

35:                                               ; preds = %27
  store ptr null, ptr %3, align 8
  store i32 1, ptr %11, align 4
  br label %58

36:                                               ; preds = %27
  %37 = load ptr, ptr %5, align 8
  %38 = getelementptr inbounds nuw %struct.field_info, ptr %37, i32 0, i32 2
  %39 = load i32, ptr %38, align 4
  store i32 %39, ptr %8, align 4
  %40 = load i32, ptr %8, align 4
  %41 = load i32, ptr %9, align 4
  %42 = icmp sgt i32 %40, %41
  br i1 %42, label %43, label %45

43:                                               ; preds = %36
  %44 = load i32, ptr %9, align 4
  store i32 %44, ptr %8, align 4
  br label %45

45:                                               ; preds = %43, %36
  %46 = load ptr, ptr %7, align 8
  %47 = load ptr, ptr %5, align 8
  %48 = getelementptr inbounds nuw %struct.field_info, ptr %47, i32 0, i32 1
  %49 = load i32, ptr %48, align 8
  %50 = load i32, ptr %8, align 4
  %51 = call ptr @tvb_get_ptr(ptr noundef %46, i32 noundef %49, i32 noundef %50)
  store ptr %51, ptr %3, align 8
  store i32 1, ptr %11, align 4
  br label %58

52:                                               ; preds = %16
  br label %53

53:                                               ; preds = %52
  %54 = load ptr, ptr %6, align 8
  %55 = getelementptr inbounds nuw %struct._GSList, ptr %54, i32 0, i32 1
  %56 = load ptr, ptr %55, align 8
  store ptr %56, ptr %6, align 8
  br label %13, !llvm.loop !39

57:                                               ; preds = %13
  store ptr null, ptr %3, align 8
  store i32 1, ptr %11, align 4
  br label %58

58:                                               ; preds = %57, %45, %35
  call void @llvm.lifetime.end.p0(i64 8, ptr %10) #15
  call void @llvm.lifetime.end.p0(i64 4, ptr %9) #15
  call void @llvm.lifetime.end.p0(i64 4, ptr %8) #15
  call void @llvm.lifetime.end.p0(i64 8, ptr %7) #15
  call void @llvm.lifetime.end.p0(i64 8, ptr %6) #15
  %59 = load ptr, ptr %3, align 8
  ret ptr %59
}

; Function Attrs: null_pointer_is_valid sspstrong uwtable
define internal void @json_write_field_hex_value(ptr noundef %0, ptr noundef %1) #0 {
  %3 = alloca ptr, align 8
  %4 = alloca ptr, align 8
  %5 = alloca ptr, align 8
  %6 = alloca i32, align 4
  %7 = alloca i32, align 4
  %8 = alloca ptr, align 8
  %9 = alloca i8, align 1
  store ptr %0, ptr %3, align 8
  store ptr %1, ptr %4, align 8
  call void @llvm.lifetime.start.p0(i64 8, ptr %5) #15
  %10 = load ptr, ptr %4, align 8
  %11 = getelementptr inbounds nuw %struct.field_info, ptr %10, i32 0, i32 8
  %12 = load ptr, ptr %11, align 8
  %13 = icmp ne ptr %12, null
  br i1 %13, label %15, label %14

14:                                               ; preds = %2
  store i32 1, ptr %6, align 4
  br label %103

15:                                               ; preds = %2
  %16 = load ptr, ptr %4, align 8
  %17 = getelementptr inbounds nuw %struct.field_info, ptr %16, i32 0, i32 2
  %18 = load i32, ptr %17, align 4
  %19 = load ptr, ptr %4, align 8
  %20 = getelementptr inbounds nuw %struct.field_info, ptr %19, i32 0, i32 8
  %21 = load ptr, ptr %20, align 8
  %22 = load ptr, ptr %4, align 8
  %23 = getelementptr inbounds nuw %struct.field_info, ptr %22, i32 0, i32 1
  %24 = load i32, ptr %23, align 8
  %25 = call i32 @tvb_captured_length_remaining(ptr noundef %21, i32 noundef %24)
  %26 = icmp sgt i32 %18, %25
  br i1 %26, label %27, label %31

27:                                               ; preds = %15
  %28 = load ptr, ptr %3, align 8
  %29 = getelementptr inbounds nuw %struct.write_json_data, ptr %28, i32 0, i32 5
  %30 = load ptr, ptr %29, align 8
  call void @json_dumper_value_string(ptr noundef %30, ptr noundef @.str.82)
  store i32 1, ptr %6, align 4
  br label %103

31:                                               ; preds = %15
  %32 = load ptr, ptr %3, align 8
  %33 = getelementptr inbounds nuw %struct.write_json_data, ptr %32, i32 0, i32 0
  %34 = load ptr, ptr %33, align 8
  %35 = load ptr, ptr %4, align 8
  %36 = call ptr @get_field_data(ptr noundef %34, ptr noundef %35)
  store ptr %36, ptr %5, align 8
  %37 = load ptr, ptr %5, align 8
  %38 = icmp ne ptr %37, null
  br i1 %38, label %39, label %98

39:                                               ; preds = %31
  call void @llvm.lifetime.start.p0(i64 4, ptr %7) #15
  call void @llvm.lifetime.start.p0(i64 8, ptr %8) #15
  %40 = load ptr, ptr %4, align 8
  %41 = getelementptr inbounds nuw %struct.field_info, ptr %40, i32 0, i32 2
  %42 = load i32, ptr %41, align 4
  %43 = mul i32 %42, 2
  %44 = add i32 %43, 1
  %45 = sext i32 %44 to i64
  %46 = call noalias ptr @g_malloc(i64 noundef %45) #18
  store ptr %46, ptr %8, align 8
  store i32 0, ptr %7, align 4
  br label %47

47:                                               ; preds = %82, %39
  %48 = load i32, ptr %7, align 4
  %49 = load ptr, ptr %4, align 8
  %50 = getelementptr inbounds nuw %struct.field_info, ptr %49, i32 0, i32 2
  %51 = load i32, ptr %50, align 4
  %52 = icmp slt i32 %48, %51
  br i1 %52, label %53, label %85

53:                                               ; preds = %47
  call void @llvm.lifetime.start.p0(i64 1, ptr %9) #15
  %54 = load ptr, ptr %5, align 8
  %55 = load i32, ptr %7, align 4
  %56 = sext i32 %55 to i64
  %57 = getelementptr i8, ptr %54, i64 %56
  %58 = load i8, ptr %57, align 1
  store i8 %58, ptr %9, align 1
  %59 = load i8, ptr %9, align 1
  %60 = zext i8 %59 to i32
  %61 = ashr i32 %60, 4
  %62 = sext i32 %61 to i64
  %63 = getelementptr [17 x i8], ptr @json_write_field_hex_value.hex, i64 0, i64 %62
  %64 = load i8, ptr %63, align 1
  %65 = load ptr, ptr %8, align 8
  %66 = load i32, ptr %7, align 4
  %67 = mul i32 2, %66
  %68 = sext i32 %67 to i64
  %69 = getelementptr i8, ptr %65, i64 %68
  store i8 %64, ptr %69, align 1
  %70 = load i8, ptr %9, align 1
  %71 = zext i8 %70 to i32
  %72 = and i32 %71, 15
  %73 = sext i32 %72 to i64
  %74 = getelementptr [17 x i8], ptr @json_write_field_hex_value.hex, i64 0, i64 %73
  %75 = load i8, ptr %74, align 1
  %76 = load ptr, ptr %8, align 8
  %77 = load i32, ptr %7, align 4
  %78 = mul i32 2, %77
  %79 = add i32 %78, 1
  %80 = sext i32 %79 to i64
  %81 = getelementptr i8, ptr %76, i64 %80
  store i8 %75, ptr %81, align 1
  call void @llvm.lifetime.end.p0(i64 1, ptr %9) #15
  br label %82

82:                                               ; preds = %53
  %83 = load i32, ptr %7, align 4
  %84 = add i32 %83, 1
  store i32 %84, ptr %7, align 4
  br label %47, !llvm.loop !45

85:                                               ; preds = %47
  %86 = load ptr, ptr %8, align 8
  %87 = load ptr, ptr %4, align 8
  %88 = getelementptr inbounds nuw %struct.field_info, ptr %87, i32 0, i32 2
  %89 = load i32, ptr %88, align 4
  %90 = mul i32 2, %89
  %91 = sext i32 %90 to i64
  %92 = getelementptr i8, ptr %86, i64 %91
  store i8 0, ptr %92, align 1
  %93 = load ptr, ptr %3, align 8
  %94 = getelementptr inbounds nuw %struct.write_json_data, ptr %93, i32 0, i32 5
  %95 = load ptr, ptr %94, align 8
  %96 = load ptr, ptr %8, align 8
  call void @json_dumper_value_string(ptr noundef %95, ptr noundef %96)
  %97 = load ptr, ptr %8, align 8
  call void @g_free(ptr noundef %97)
  call void @llvm.lifetime.end.p0(i64 8, ptr %8) #15
  call void @llvm.lifetime.end.p0(i64 4, ptr %7) #15
  br label %102

98:                                               ; preds = %31
  %99 = load ptr, ptr %3, align 8
  %100 = getelementptr inbounds nuw %struct.write_json_data, ptr %99, i32 0, i32 5
  %101 = load ptr, ptr %100, align 8
  call void @json_dumper_value_string(ptr noundef %101, ptr noundef @.str.60)
  br label %102

102:                                              ; preds = %98, %85
  store i32 0, ptr %6, align 4
  br label %103

103:                                              ; preds = %102, %27, %14
  call void @llvm.lifetime.end.p0(i64 8, ptr %5) #15
  %104 = load i32, ptr %6, align 4
  switch i32 %104, label %106 [
    i32 0, label %105
    i32 1, label %105
  ]

105:                                              ; preds = %103, %103
  ret void

106:                                              ; preds = %103
  unreachable
}