; Function Attrs: null_pointer_is_valid sspstrong uwtable
define internal fastcc void @json_write_field_hex_value(ptr noundef readonly captures(none) %0, ptr noundef readonly captures(none) %1) unnamed_addr #0 {
  %3 = getelementptr inbounds nuw i8, ptr %1, i64 40
  %4 = load ptr, ptr %3, align 8
  %.not = icmp eq ptr %4, null
  br i1 %.not, label %63, label %5

5:                                                ; preds = %2
  %6 = getelementptr inbounds nuw i8, ptr %1, i64 12
  %7 = load i32, ptr %6, align 4
  %8 = getelementptr inbounds nuw i8, ptr %1, i64 8
  %9 = load i32, ptr %8, align 8
  %10 = tail call i32 @tvb_captured_length_remaining(ptr noundef nonnull %4, i32 noundef %9)
  %11 = icmp sgt i32 %7, %10
  br i1 %11, label %12, label %15

12:                                               ; preds = %5
  %13 = getelementptr inbounds nuw i8, ptr %0, i64 32
  %14 = load ptr, ptr %13, align 8
  tail call void @json_dumper_value_string(ptr noundef %14, ptr noundef nonnull @.str.82)
  br label %63

15:                                               ; preds = %5
  %16 = load ptr, ptr %0, align 8
  %.not22.i = icmp eq ptr %16, null
  br i1 %.not22.i, label %get_field_data.exit.thread, label %.lr.ph.i

.lr.ph.i:                                         ; preds = %15, %25
  %.01723.i = phi ptr [ %27, %25 ], [ %16, %15 ]
  %17 = load ptr, ptr %.01723.i, align 8
  %18 = tail call ptr @get_data_source_tvb(ptr noundef %17)
  %19 = load ptr, ptr %3, align 8
  %20 = icmp eq ptr %19, %18
  br i1 %20, label %21, label %25

21:                                               ; preds = %.lr.ph.i
  %22 = load i32, ptr %8, align 8
  %23 = tail call i32 @tvb_captured_length_remaining(ptr noundef %18, i32 noundef %22)
  %24 = icmp slt i32 %23, 0
  br i1 %24, label %get_field_data.exit.thread, label %get_field_data.exit

25:                                               ; preds = %.lr.ph.i
  %26 = getelementptr inbounds nuw i8, ptr %.01723.i, i64 8
  %27 = load ptr, ptr %26, align 8
  %.not.i = icmp eq ptr %27, null
  br i1 %.not.i, label %get_field_data.exit.thread, label %.lr.ph.i, !llvm.loop !8

get_field_data.exit:                              ; preds = %21
  %28 = load i32, ptr %6, align 4
  %spec.select.i = tail call i32 @llvm.smin.i32(i32 %28, i32 %23)
  %29 = load i32, ptr %8, align 8
  %30 = tail call ptr @tvb_get_ptr(ptr noundef %18, i32 noundef %29, i32 noundef %spec.select.i)
  %.not28 = icmp eq ptr %30, null
  br i1 %.not28, label %get_field_data.exit.thread, label %31

31:                                               ; preds = %get_field_data.exit
  %32 = load i32, ptr %6, align 4
  %33 = shl i32 %32, 1
  %34 = or disjoint i32 %33, 1
  %35 = sext i32 %34 to i64
  %36 = tail call noalias ptr @g_malloc(i64 noundef %35) #26
  %37 = load i32, ptr %6, align 4
  %38 = icmp sgt i32 %37, 0
  br i1 %38, label %.lr.ph.preheader, label %._crit_edge

.lr.ph.preheader:                                 ; preds = %31
  %wide.trip.count = zext nneg i32 %37 to i64
  br label %.lr.ph

.lr.ph:                                           ; preds = %.lr.ph.preheader, %.lr.ph
  %indvars.iv = phi i64 [ 0, %.lr.ph.preheader ], [ %indvars.iv.next, %.lr.ph ]
  %39 = getelementptr i8, ptr %30, i64 %indvars.iv
  %40 = load i8, ptr %39, align 1
  %41 = zext i8 %40 to i32
  %42 = lshr i32 %41, 4
  %43 = zext nneg i32 %42 to i64
  %44 = getelementptr [17 x i8], ptr @json_write_field_hex_value.hex, i64 0, i64 %43
  %45 = load i8, ptr %44, align 1
  %sext = shl i64 %indvars.iv, 33
  %46 = ashr exact i64 %sext, 32
  %47 = getelementptr i8, ptr %36, i64 %46
  store i8 %45, ptr %47, align 1
  %48 = and i32 %41, 15
  %49 = zext nneg i32 %48 to i64
  %50 = getelementptr [17 x i8], ptr @json_write_field_hex_value.hex, i64 0, i64 %49
  %51 = load i8, ptr %50, align 1
  %indvars.iv.tr = trunc i64 %indvars.iv to i32
  %52 = shl i32 %indvars.iv.tr, 1
  %53 = or disjoint i32 %52, 1
  %54 = sext i32 %53 to i64
  %55 = getelementptr i8, ptr %36, i64 %54
  store i8 %51, ptr %55, align 1
  %indvars.iv.next = add nuw nsw i64 %indvars.iv, 1
  %exitcond.not = icmp eq i64 %indvars.iv.next, %wide.trip.count
  br i1 %exitcond.not, label %._crit_edge, label %.lr.ph, !llvm.loop !48

._crit_edge:                                      ; preds = %.lr.ph, %31
  %56 = shl i32 %37, 1
  %57 = sext i32 %56 to i64
  %58 = getelementptr i8, ptr %36, i64 %57
  store i8 0, ptr %58, align 1
  %59 = getelementptr inbounds nuw i8, ptr %0, i64 32
  %60 = load ptr, ptr %59, align 8
  tail call void @json_dumper_value_string(ptr noundef %60, ptr noundef %36)
  tail call void @g_free(ptr noundef %36)
  br label %63

get_field_data.exit.thread:                       ; preds = %25, %15, %21, %get_field_data.exit
  %61 = getelementptr inbounds nuw i8, ptr %0, i64 32
  %62 = load ptr, ptr %61, align 8
  tail call void @json_dumper_value_string(ptr noundef %62, ptr noundef nonnull @.str.60)
  br label %63

63:                                               ; preds = %._crit_edge, %get_field_data.exit.thread, %2, %12
  ret void
}